target datalayout = "e-m:e-p270:32:32-p271:32:32-p272:64:64-i64:64-i128:128-f80:128-n8:16:32:64-S128"
target triple = "x86_64-pc-linux-gnu"

%"class.cv::tinyxml2::StrPair" = type { i32, ptr, ptr }
%"class.cv::tinyxml2::XMLNode" = type { ptr, ptr, ptr, %"class.cv::tinyxml2::StrPair", ptr, ptr, ptr, ptr, ptr }

; Function Attrs: mustprogress uwtable
define hidden noundef ptr @_ZNK2cv8tinyxml27XMLNode5ValueEv(ptr noundef nonnull align 8 dereferenceable(88) %0) #3 align 2 {
  %2 = alloca ptr, align 8
  store ptr %0, ptr %2, align 8, !tbaa !55
  %3 = load ptr, ptr %2, align 8
  %4 = getelementptr inbounds nuw %"class.cv::tinyxml2::XMLNode", ptr %3, i32 0, i32 3
  %5 = call noundef ptr @_ZN2cv8tinyxml27StrPair6GetStrEv(ptr noundef nonnull align 8 dereferenceable(24) %4)
  ret ptr %5
}

; Function Attrs: inlinehint mustprogress nounwind uwtable
define linkonce_odr hidden noundef zeroext i1 @_ZN2cv8tinyxml27XMLUtil11StringEqualEPKcS3_i(ptr noundef %0, ptr noundef %1, i32 noundef %2) #8 comdat align 2 {
  %4 = alloca i1, align 1
  %5 = alloca ptr, align 8
  %6 = alloca ptr, align 8
  %7 = alloca i32, align 4
  %8 = alloca i32, align 4
  %9 = alloca i32, align 4
  store ptr %0, ptr %5, align 8, !tbaa !14
  store ptr %1, ptr %6, align 8, !tbaa !14
  store i32 %2, ptr %7, align 4, !tbaa !15
  call void @llvm.lifetime.start.p0(i64 4, ptr %8) #17
  store i32 0, ptr %8, align 4, !tbaa !15
  %10 = load ptr, ptr %5, align 8, !tbaa !14
  %11 = load ptr, ptr %6, align 8, !tbaa !14
  %12 = icmp eq ptr %10, %11
  br i1 %12, label %13, label %14

13:                                               ; preds = %3
  store i1 true, ptr %4, align 1
  store i32 1, ptr %9, align 4
  br label %60

14:                                               ; preds = %3
  br label %15

15:                                               ; preds = %37, %14
  %16 = load ptr, ptr %5, align 8, !tbaa !14
  %17 = load i8, ptr %16, align 1, !tbaa !18
  %18 = icmp ne i8 %17, 0
  br i1 %18, label %19, label %35

19:                                               ; preds = %15
  %20 = load ptr, ptr %6, align 8, !tbaa !14
  %21 = load i8, ptr %20, align 1, !tbaa !18
  %22 = icmp ne i8 %21, 0
  br i1 %22, label %23, label %35

23:                                               ; preds = %19
  %24 = load ptr, ptr %5, align 8, !tbaa !14
  %25 = load i8, ptr %24, align 1, !tbaa !18
  %26 = sext i8 %25 to i32
  %27 = load ptr, ptr %6, align 8, !tbaa !14
  %28 = load i8, ptr %27, align 1, !tbaa !18
  %29 = sext i8 %28 to i32
  %30 = icmp eq i32 %26, %29
  br i1 %30, label %31, label %35

31:                                               ; preds = %23
  %32 = load i32, ptr %8, align 4, !tbaa !15
  %33 = load i32, ptr %7, align 4, !tbaa !15
  %34 = icmp slt i32 %32, %33
  br label %35

35:                                               ; preds = %31, %23, %19, %15
  %36 = phi i1 [ false, %23 ], [ false, %19 ], [ false, %15 ], [ %34, %31 ]
  br i1 %36, label %37, label %44

37:                                               ; preds = %35
  %38 = load ptr, ptr %5, align 8, !tbaa !14
  %39 = getelementptr inbounds nuw i8, ptr %38, i32 1
  store ptr %39, ptr %5, align 8, !tbaa !14
  %40 = load ptr, ptr %6, align 8, !tbaa !14
  %41 = getelementptr inbounds nuw i8, ptr %40, i32 1
  store ptr %41, ptr %6, align 8, !tbaa !14
  %42 = load i32, ptr %8, align 4, !tbaa !15
  %43 = add nsw i32 %42, 1
  store i32 %43, ptr %8, align 4, !tbaa !15
  br label %15, !llvm.loop !45

44:                                               ; preds = %35
  %45 = load i32, ptr %8, align 4, !tbaa !15
  %46 = load i32, ptr %7, align 4, !tbaa !15
  %47 = icmp eq i32 %45, %46
  br i1 %47, label %58, label %48

48:                                               ; preds = %44
  %49 = load ptr, ptr %5, align 8, !tbaa !14
  %50 = load i8, ptr %49, align 1, !tbaa !18
  %51 = sext i8 %50 to i32
  %52 = icmp eq i32 %51, 0
  br i1 %52, label %53, label %59

53:                                               ; preds = %48
  %54 = load ptr, ptr %6, align 8, !tbaa !14
  %55 = load i8, ptr %54, align 1, !tbaa !18
  %56 = sext i8 %55 to i32
  %57 = icmp eq i32 %56, 0
  br i1 %57, label %58, label %59

58:                                               ; preds = %53, %44
  store i1 true, ptr %4, align 1
  store i32 1, ptr %9, align 4
  br label %60

59:                                               ; preds = %53, %48
  store i1 false, ptr %4, align 1
  store i32 1, ptr %9, align 4
  br label %60

60:                                               ; preds = %59, %58, %13
  call void @llvm.lifetime.end.p0(i64 4, ptr %8) #17
  %61 = load i1, ptr %4, align 1
  ret i1 %61
}

; Function Attrs: mustprogress uwtable
define linkonce_odr hidden noundef ptr @_ZNK2cv8tinyxml210XMLElement4NameEv(ptr noundef nonnull align 8 dereferenceable(104) %0) #3 comdat align 2 {
  %2 = alloca ptr, align 8
  store ptr %0, ptr %2, align 8, !tbaa !121
  %3 = load ptr, ptr %2, align 8
  %4 = call noundef ptr @_ZNK2cv8tinyxml27XMLNode5ValueEv(ptr noundef nonnull align 8 dereferenceable(88) %3)
  ret ptr %4
}

; Function Attrs: mustprogress uwtable
define hidden noundef ptr @_ZNK2cv8tinyxml27XMLNode16LastChildElementEPKc(ptr noundef nonnull align 8 dereferenceable(88) %0, ptr noundef %1) #3 align 2 {
  %3 = alloca ptr, align 8
  %4 = alloca ptr, align 8
  %5 = alloca ptr, align 8
  %6 = alloca ptr, align 8
  %7 = alloca i32, align 4
  %8 = alloca ptr, align 8
  store ptr %0, ptr %4, align 8, !tbaa !55
  store ptr %1, ptr %5, align 8, !tbaa !14
  %9 = load ptr, ptr %4, align 8
  call void @llvm.lifetime.start.p0(i64 8, ptr %6) #17
  %10 = getelementptr inbounds nuw %"class.cv::tinyxml2::XMLNode", ptr %9, i32 0, i32 5
  %11 = load ptr, ptr %10, align 8, !tbaa !117
  store ptr %11, ptr %6, align 8, !tbaa !55
  br label %12

12:                                               ; preds = %39, %2
  %13 = load ptr, ptr %6, align 8, !tbaa !55
  %14 = icmp ne ptr %13, null
  br i1 %14, label %16, label %15

15:                                               ; preds = %12
  store i32 2, ptr %7, align 4
  br label %43

16:                                               ; preds = %12
  call void @llvm.lifetime.start.p0(i64 8, ptr %8) #17
  %17 = load ptr, ptr %6, align 8, !tbaa !55
  %18 = load ptr, ptr %17, align 8, !tbaa !92
  %19 = getelementptr inbounds ptr, ptr %18, i64 0
  %20 = load ptr, ptr %19, align 8
  %21 = call noundef ptr %20(ptr noundef nonnull align 8 dereferenceable(88) %17)
  store ptr %21, ptr %8, align 8, !tbaa !121
  %22 = load ptr, ptr %8, align 8, !tbaa !121
  %23 = icmp ne ptr %22, null
  br i1 %23, label %24, label %35

24:                                               ; preds = %16
  %25 = load ptr, ptr %5, align 8, !tbaa !14
  %26 = icmp ne ptr %25, null
  br i1 %26, label %27, label %32

27:                                               ; preds = %24
  %28 = load ptr, ptr %8, align 8, !tbaa !121
  %29 = call noundef ptr @_ZNK2cv8tinyxml210XMLElement4NameEv(ptr noundef nonnull align 8 dereferenceable(104) %28)
  %30 = load ptr, ptr %5, align 8, !tbaa !14
  %31 = call noundef zeroext i1 @_ZN2cv8tinyxml27XMLUtil11StringEqualEPKcS3_i(ptr noundef %29, ptr noundef %30, i32 noundef 2147483647)
  br i1 %31, label %32, label %34

32:                                               ; preds = %27, %24
  %33 = load ptr, ptr %8, align 8, !tbaa !121
  store ptr %33, ptr %3, align 8
  store i32 1, ptr %7, align 4
  br label %36

34:                                               ; preds = %27
  br label %35

35:                                               ; preds = %34, %16
  store i32 0, ptr %7, align 4
  br label %36

36:                                               ; preds = %35, %32
  call void @llvm.lifetime.end.p0(i64 8, ptr %8) #17
  %37 = load i32, ptr %7, align 4
  switch i32 %37, label %43 [
    i32 0, label %38
  ]

38:                                               ; preds = %36
  br label %39

39:                                               ; preds = %38
  %40 = load ptr, ptr %6, align 8, !tbaa !55
  %41 = getelementptr inbounds nuw %"class.cv::tinyxml2::XMLNode", ptr %40, i32 0, i32 6
  %42 = load ptr, ptr %41, align 8, !tbaa !118
  store ptr %42, ptr %6, align 8, !tbaa !55
  br label %12, !llvm.loop !124

43:                                               ; preds = %36, %15
  call void @llvm.lifetime.end.p0(i64 8, ptr %6) #17
  %44 = load i32, ptr %7, align 4
  switch i32 %44, label %48 [
    i32 2, label %45
    i32 1, label %46
  ]

45:                                               ; preds = %43
  store ptr null, ptr %3, align 8
  br label %46

46:                                               ; preds = %45, %43
  %47 = load ptr, ptr %3, align 8
  ret ptr %47

48:                                               ; preds = %43
  unreachable
}