; Function Attrs: mustprogress uwtable
define hidden noundef ptr @_ZNK2cv8tinyxml27XMLNode16LastChildElementEPKc(ptr noundef nonnull readonly align 8 captures(none) dereferenceable(88) %0, ptr noundef readonly %1) local_unnamed_addr #4 align 2 {
  %3 = getelementptr inbounds nuw i8, ptr %0, i64 56
  %.01329 = load ptr, ptr %3, align 8, !tbaa !48
  %.not30 = icmp eq ptr %.01329, null
  br i1 %.not30, label %_ZN2cv8tinyxml27XMLUtil11StringEqualEPKcS3_i.exit, label %.lr.ph

.lr.ph:                                           ; preds = %2
  %.not17 = icmp eq ptr %1, null
  br i1 %.not17, label %.lr.ph.split.us, label %.lr.ph.split

.lr.ph.split.us:                                  ; preds = %.lr.ph, %7
  %.01331.us = phi ptr [ %.013.us, %7 ], [ %.01329, %.lr.ph ]
  %4 = load ptr, ptr %.01331.us, align 8, !tbaa !39
  %5 = load ptr, ptr %4, align 8
  %6 = tail call noundef ptr %5(ptr noundef nonnull align 8 dereferenceable(88) %.01331.us)
  %.not16.us = icmp eq ptr %6, null
  br i1 %.not16.us, label %7, label %_ZN2cv8tinyxml27XMLUtil11StringEqualEPKcS3_i.exit

7:                                                ; preds = %.lr.ph.split.us
  %8 = getelementptr inbounds nuw i8, ptr %.01331.us, i64 64
  %.013.us = load ptr, ptr %8, align 8, !tbaa !48
  %.not.us = icmp eq ptr %.013.us, null
  br i1 %.not.us, label %_ZN2cv8tinyxml27XMLUtil11StringEqualEPKcS3_i.exit, label %.lr.ph.split.us, !llvm.loop !103

.lr.ph.split:                                     ; preds = %.lr.ph, %30
  %.01331 = phi ptr [ %.013, %30 ], [ %.01329, %.lr.ph ]
  %9 = load ptr, ptr %.01331, align 8, !tbaa !39
  %10 = load ptr, ptr %9, align 8
  %11 = tail call noundef ptr %10(ptr noundef nonnull align 8 dereferenceable(88) %.01331)
  %.not16 = icmp eq ptr %11, null
  br i1 %.not16, label %30, label %12

12:                                               ; preds = %.lr.ph.split
  %13 = getelementptr inbounds nuw i8, ptr %11, i64 24
  %14 = tail call noundef ptr @_ZN2cv8tinyxml27StrPair6GetStrEv(ptr noundef nonnull align 8 dereferenceable(24) %13)
  %15 = icmp eq ptr %14, %1
  br i1 %15, label %_ZN2cv8tinyxml27XMLUtil11StringEqualEPKcS3_i.exit, label %.preheader.i

.preheader.i:                                     ; preds = %12
  %16 = load i8, ptr %14, align 1, !tbaa !12
  %.not26.i = icmp eq i8 %16, 0
  br i1 %.not26.i, label %.critedge.i.thread, label %.lr.ph.i

.lr.ph.i:                                         ; preds = %.preheader.i, %21
  %17 = phi i8 [ %25, %21 ], [ %16, %.preheader.i ]
  %.029.i = phi i32 [ %24, %21 ], [ 0, %.preheader.i ]
  %.01628.i = phi ptr [ %23, %21 ], [ %1, %.preheader.i ]
  %.01727.i = phi ptr [ %22, %21 ], [ %14, %.preheader.i ]
  %18 = load i8, ptr %.01628.i, align 1, !tbaa !12
  %19 = icmp eq i8 %17, %18
  %20 = icmp ne i32 %.029.i, 2147483647
  %or.cond23.i = select i1 %19, i1 %20, i1 false
  br i1 %or.cond23.i, label %21, label %.critedge.thread.i

21:                                               ; preds = %.lr.ph.i
  %22 = getelementptr inbounds nuw i8, ptr %.01727.i, i64 1
  %23 = getelementptr inbounds nuw i8, ptr %.01628.i, i64 1
  %24 = add nuw nsw i32 %.029.i, 1
  %25 = load i8, ptr %22, align 1, !tbaa !12
  %.not.i = icmp eq i8 %25, 0
  br i1 %.not.i, label %.critedge.i, label %.lr.ph.i, !llvm.loop !32

.critedge.i:                                      ; preds = %21
  %26 = icmp eq i32 %24, 2147483647
  br i1 %26, label %_ZN2cv8tinyxml27XMLUtil11StringEqualEPKcS3_i.exit, label %.critedge.i.thread

.critedge.thread.i:                               ; preds = %.lr.ph.i
  %27 = icmp eq i32 %.029.i, 2147483647
  br i1 %27, label %_ZN2cv8tinyxml27XMLUtil11StringEqualEPKcS3_i.exit, label %30

.critedge.i.thread:                               ; preds = %.preheader.i, %.critedge.i
  %.016.lcssa.i20 = phi ptr [ %23, %.critedge.i ], [ %1, %.preheader.i ]
  %28 = load i8, ptr %.016.lcssa.i20, align 1, !tbaa !12
  %29 = icmp eq i8 %28, 0
  br i1 %29, label %_ZN2cv8tinyxml27XMLUtil11StringEqualEPKcS3_i.exit, label %30

30:                                               ; preds = %.critedge.i.thread, %.critedge.thread.i, %.lr.ph.split
  %31 = getelementptr inbounds nuw i8, ptr %.01331, i64 64
  %.013 = load ptr, ptr %31, align 8, !tbaa !48
  %.not = icmp eq ptr %.013, null
  br i1 %.not, label %_ZN2cv8tinyxml27XMLUtil11StringEqualEPKcS3_i.exit, label %.lr.ph.split, !llvm.loop !103

_ZN2cv8tinyxml27XMLUtil11StringEqualEPKcS3_i.exit: ; preds = %30, %12, %.critedge.i.thread, %.critedge.i, %.critedge.thread.i, %7, %.lr.ph.split.us, %2
  %spec.select = phi ptr [ null, %2 ], [ %6, %.lr.ph.split.us ], [ null, %7 ], [ %11, %.critedge.thread.i ], [ %11, %.critedge.i ], [ %11, %.critedge.i.thread ], [ %11, %12 ], [ null, %30 ]
  ret ptr %spec.select
}